; Function Attrs: mustprogress uwtable
define void @_ZNK5arrow9FieldPath3GetERKSt6vectorISt10shared_ptrINS_5FieldEESaIS4_EE(ptr dead_on_unwind noalias writable sret(%"class.arrow::Result") align 8 %0, ptr noundef nonnull align 8 dereferenceable(24) %1, ptr noundef nonnull align 8 dereferenceable(24) %2) local_unnamed_addr #1 align 2 personality ptr @__gxx_personality_v0 {
  %4 = alloca %"class.arrow::NestedSelector", align 8
  call void @llvm.memset.p0.i64(ptr noundef nonnull align 8 dereferenceable(40) %4, i8 0, i64 16, i1 false)
  %5 = getelementptr inbounds nuw i8, ptr %4, i64 16
  store ptr %2, ptr %5, align 8, !tbaa !1231
  %6 = getelementptr inbounds nuw i8, ptr %4, i64 24
  store i8 1, ptr %6, align 8, !tbaa !1234
  %7 = invoke noundef ptr @_ZN5arrow19default_memory_poolEv()
          to label %_ZN5arrow14NestedSelectorINS_5FieldELb0EEC2ERKSt6vectorISt10shared_ptrIS1_ESaIS5_EE.exit unwind label %8

common.resume:                                    ; preds = %35, %8
  %common.resume.op = phi { ptr, i32 } [ %9, %8 ], [ %36, %35 ]
  resume { ptr, i32 } %common.resume.op

8:                                                ; preds = %3
  %9 = landingpad { ptr, i32 }
          cleanup
  call void @_ZNSt12__shared_ptrIN5arrow5FieldELN9__gnu_cxx12_Lock_policyE2EED2Ev(ptr noundef nonnull align 8 dereferenceable(40) %4) #38
  br label %common.resume

_ZN5arrow14NestedSelectorINS_5FieldELb0EEC2ERKSt6vectorISt10shared_ptrIS1_ESaIS5_EE.exit: ; preds = %3
  %10 = getelementptr inbounds nuw i8, ptr %4, i64 32
  store ptr %7, ptr %10, align 8, !tbaa !1236
  invoke void @_ZN5arrow16FieldPathGetImpl3GetINS_14NestedSelectorINS_5FieldELb0EEES3_EENS_6ResultISt10shared_ptrIT0_EEEPKNS_9FieldPathET_Pi(ptr dead_on_unwind writable sret(%"class.arrow::Result") align 8 %0, ptr noundef nonnull %1, ptr noundef nonnull %4, ptr noundef null)
          to label %11 unwind label %35

11:                                               ; preds = %_ZN5arrow14NestedSelectorINS_5FieldELb0EEC2ERKSt6vectorISt10shared_ptrIS1_ESaIS5_EE.exit
  %12 = getelementptr inbounds nuw i8, ptr %4, i64 8
  %13 = load ptr, ptr %12, align 8, !tbaa !352
  %.not.i.i.i = icmp eq ptr %13, null
  br i1 %.not.i.i.i, label %_ZN5arrow14NestedSelectorINS_5FieldELb0EED2Ev.exit, label %14

14:                                               ; preds = %11
  %15 = getelementptr inbounds nuw i8, ptr %13, i64 8
  %16 = load atomic i64, ptr %15 acquire, align 8
  %17 = icmp eq i64 %16, 4294967297
  %18 = trunc i64 %16 to i32
  br i1 %17, label %19, label %27

19:                                               ; preds = %14
  store i32 0, ptr %15, align 8, !tbaa !482
  %20 = getelementptr inbounds nuw i8, ptr %13, i64 12
  store i32 0, ptr %20, align 4, !tbaa !493
  %21 = load ptr, ptr %13, align 8, !tbaa !330
  %22 = getelementptr inbounds nuw i8, ptr %21, i64 16
  %23 = load ptr, ptr %22, align 8
  call void %23(ptr noundef nonnull align 8 dereferenceable(16) %13) #38
  %24 = load ptr, ptr %13, align 8, !tbaa !330
  %25 = getelementptr inbounds nuw i8, ptr %24, i64 24
  %26 = load ptr, ptr %25, align 8
  call void %26(ptr noundef nonnull align 8 dereferenceable(16) %13) #38
  br label %_ZN5arrow14NestedSelectorINS_5FieldELb0EED2Ev.exit

27:                                               ; preds = %14
  %28 = load i8, ptr @__libc_single_threaded, align 1, !tbaa !42
  %.not.i.i.i.i = icmp eq i8 %28, 0
  br i1 %.not.i.i.i.i, label %31, label %29

29:                                               ; preds = %27
  %30 = add nsw i32 %18, -1
  store i32 %30, ptr %15, align 4, !tbaa !358
  br label %_ZN9__gnu_cxx27__exchange_and_add_dispatchEPii.exit.i.i.i.i

31:                                               ; preds = %27
  %32 = atomicrmw volatile add ptr %15, i32 -1 acq_rel, align 4
  br label %_ZN9__gnu_cxx27__exchange_and_add_dispatchEPii.exit.i.i.i.i

_ZN9__gnu_cxx27__exchange_and_add_dispatchEPii.exit.i.i.i.i: ; preds = %31, %29
  %.0.i.i.i.i.i = phi i32 [ %18, %29 ], [ %32, %31 ]
  %33 = icmp eq i32 %.0.i.i.i.i.i, 1
  br i1 %33, label %34, label %_ZN5arrow14NestedSelectorINS_5FieldELb0EED2Ev.exit, !prof !559

34:                                               ; preds = %_ZN9__gnu_cxx27__exchange_and_add_dispatchEPii.exit.i.i.i.i
  call void @_ZNSt16_Sp_counted_baseILN9__gnu_cxx12_Lock_policyE2EE24_M_release_last_use_coldEv(ptr noundef nonnull align 8 dereferenceable(16) %13) #38
  br label %_ZN5arrow14NestedSelectorINS_5FieldELb0EED2Ev.exit

_ZN5arrow14NestedSelectorINS_5FieldELb0EED2Ev.exit: ; preds = %11, %19, %_ZN9__gnu_cxx27__exchange_and_add_dispatchEPii.exit.i.i.i.i, %34
  ret void

35:                                               ; preds = %_ZN5arrow14NestedSelectorINS_5FieldELb0EEC2ERKSt6vectorISt10shared_ptrIS1_ESaIS5_EE.exit
  %36 = landingpad { ptr, i32 }
          cleanup
  call void @_ZN5arrow14NestedSelectorINS_5FieldELb0EED2Ev(ptr noundef nonnull align 8 dereferenceable(40) %4) #38
  br label %common.resume
}